; Function Attrs: mustprogress nofree norecurse nosync nounwind willreturn memory(readwrite, inaccessiblemem: none) uwtable
define void @_ZNK19OpenColorIO_v2_5dev19AllocationTransform7getVarsEPf(ptr noundef nonnull readonly align 8 captures(none) dereferenceable(16) %0, ptr noundef writeonly captures(none) %1) local_unnamed_addr #13 align 2 {
  %3 = getelementptr inbounds nuw i8, ptr %0, i64 8
  %4 = load ptr, ptr %3, align 8, !tbaa !32
  %5 = getelementptr inbounds nuw i8, ptr %4, i64 8
  %6 = load ptr, ptr %5, align 8, !tbaa !51
  %7 = getelementptr inbounds nuw i8, ptr %4, i64 16
  %8 = load ptr, ptr %7, align 8, !tbaa !51
  %9 = icmp eq ptr %6, %8
  br i1 %9, label %14, label %10

10:                                               ; preds = %2
  %11 = ptrtoint ptr %8 to i64
  %12 = ptrtoint ptr %6 to i64
  %13 = sub i64 %11, %12
  tail call void @llvm.memcpy.p0.p0.i64(ptr align 4 %1, ptr nonnull align 4 %6, i64 %13, i1 false)
  br label %14

14:                                               ; preds = %10, %2
  ret void
}